; Function Attrs: mustprogress uwtable
define dso_local void @_ZN9struct_pb8compiler18get_type_name_helpB5cxx11EN6google8protobuf15FieldDescriptor4TypeE(ptr noalias sret(%"class.std::__cxx11::basic_string") align 8 %agg.result, i32 noundef %type) local_unnamed_addr #3 personality ptr @__gxx_personality_v0 {
entry:
  %ref.tmp = alloca %"class.std::allocator", align 1
  %ref.tmp2 = alloca %"class.std::allocator", align 1
  %ref.tmp6 = alloca %"class.std::allocator", align 1
  %ref.tmp10 = alloca %"class.std::allocator", align 1
  %ref.tmp14 = alloca %"class.std::allocator", align 1
  %ref.tmp18 = alloca %"class.std::allocator", align 1
  %ref.tmp22 = alloca %"class.std::allocator", align 1
  %ref.tmp25 = alloca %"class.std::allocator", align 1
  switch i32 %type, label %sw.default [
    i32 1, label %sw.bb
    i32 2, label %sw.bb1
    i32 3, label %sw.bb5
    i32 16, label %sw.bb5
    i32 18, label %sw.bb5
    i32 4, label %sw.bb9
    i32 6, label %sw.bb9
    i32 13, label %sw.bb13
    i32 7, label %sw.bb13
    i32 5, label %sw.bb17
    i32 15, label %sw.bb17
    i32 17, label %sw.bb17
    i32 8, label %sw.bb21
  ]

sw.bb:                                            ; preds = %entry
  call void @_ZNSaIcEC1Ev(ptr noundef nonnull align 1 dereferenceable(1) %ref.tmp) #18
  invoke void @_ZNSt7__cxx1112basic_stringIcSt11char_traitsIcESaIcEEC2IS3_EEPKcRKS3_(ptr noundef nonnull align 8 dereferenceable(32) %agg.result, ptr noundef nonnull @.str, ptr noundef nonnull align 1 dereferenceable(1) %ref.tmp)
          to label %return unwind label %lpad

lpad:                                             ; preds = %sw.bb
  %0 = landingpad { ptr, i32 }
          cleanup
  br label %eh.resume

sw.bb1:                                           ; preds = %entry
  call void @_ZNSaIcEC1Ev(ptr noundef nonnull align 1 dereferenceable(1) %ref.tmp2) #18
  invoke void @_ZNSt7__cxx1112basic_stringIcSt11char_traitsIcESaIcEEC2IS3_EEPKcRKS3_(ptr noundef nonnull align 8 dereferenceable(32) %agg.result, ptr noundef nonnull @.str.1, ptr noundef nonnull align 1 dereferenceable(1) %ref.tmp2)
          to label %return unwind label %lpad3

lpad3:                                            ; preds = %sw.bb1
  %1 = landingpad { ptr, i32 }
          cleanup
  br label %eh.resume

sw.bb5:                                           ; preds = %entry, %entry, %entry
  call void @_ZNSaIcEC1Ev(ptr noundef nonnull align 1 dereferenceable(1) %ref.tmp6) #18
  invoke void @_ZNSt7__cxx1112basic_stringIcSt11char_traitsIcESaIcEEC2IS3_EEPKcRKS3_(ptr noundef nonnull align 8 dereferenceable(32) %agg.result, ptr noundef nonnull @.str.2, ptr noundef nonnull align 1 dereferenceable(1) %ref.tmp6)
          to label %return unwind label %lpad7

lpad7:                                            ; preds = %sw.bb5
  %2 = landingpad { ptr, i32 }
          cleanup
  br label %eh.resume

sw.bb9:                                           ; preds = %entry, %entry
  call void @_ZNSaIcEC1Ev(ptr noundef nonnull align 1 dereferenceable(1) %ref.tmp10) #18
  invoke void @_ZNSt7__cxx1112basic_stringIcSt11char_traitsIcESaIcEEC2IS3_EEPKcRKS3_(ptr noundef nonnull align 8 dereferenceable(32) %agg.result, ptr noundef nonnull @.str.3, ptr noundef nonnull align 1 dereferenceable(1) %ref.tmp10)
          to label %return unwind label %lpad11

lpad11:                                           ; preds = %sw.bb9
  %3 = landingpad { ptr, i32 }
          cleanup
  br label %eh.resume

sw.bb13:                                          ; preds = %entry, %entry
  call void @_ZNSaIcEC1Ev(ptr noundef nonnull align 1 dereferenceable(1) %ref.tmp14) #18
  invoke void @_ZNSt7__cxx1112basic_stringIcSt11char_traitsIcESaIcEEC2IS3_EEPKcRKS3_(ptr noundef nonnull align 8 dereferenceable(32) %agg.result, ptr noundef nonnull @.str.4, ptr noundef nonnull align 1 dereferenceable(1) %ref.tmp14)
          to label %return unwind label %lpad15

lpad15:                                           ; preds = %sw.bb13
  %4 = landingpad { ptr, i32 }
          cleanup
  br label %eh.resume

sw.bb17:                                          ; preds = %entry, %entry, %entry
  call void @_ZNSaIcEC1Ev(ptr noundef nonnull align 1 dereferenceable(1) %ref.tmp18) #18
  invoke void @_ZNSt7__cxx1112basic_stringIcSt11char_traitsIcESaIcEEC2IS3_EEPKcRKS3_(ptr noundef nonnull align 8 dereferenceable(32) %agg.result, ptr noundef nonnull @.str.5, ptr noundef nonnull align 1 dereferenceable(1) %ref.tmp18)
          to label %return unwind label %lpad19

lpad19:                                           ; preds = %sw.bb17
  %5 = landingpad { ptr, i32 }
          cleanup
  br label %eh.resume

sw.bb21:                                          ; preds = %entry
  call void @_ZNSaIcEC1Ev(ptr noundef nonnull align 1 dereferenceable(1) %ref.tmp22) #18
  invoke void @_ZNSt7__cxx1112basic_stringIcSt11char_traitsIcESaIcEEC2IS3_EEPKcRKS3_(ptr noundef nonnull align 8 dereferenceable(32) %agg.result, ptr noundef nonnull @.str.6, ptr noundef nonnull align 1 dereferenceable(1) %ref.tmp22)
          to label %return unwind label %lpad23

lpad23:                                           ; preds = %sw.bb21
  %6 = landingpad { ptr, i32 }
          cleanup
  br label %eh.resume

sw.default:                                       ; preds = %entry
  call void @_ZNSaIcEC1Ev(ptr noundef nonnull align 1 dereferenceable(1) %ref.tmp25) #18
  invoke void @_ZNSt7__cxx1112basic_stringIcSt11char_traitsIcESaIcEEC2IS3_EEPKcRKS3_(ptr noundef nonnull align 8 dereferenceable(32) %agg.result, ptr noundef nonnull @.str.7, ptr noundef nonnull align 1 dereferenceable(1) %ref.tmp25)
          to label %return unwind label %lpad26

lpad26:                                           ; preds = %sw.default
  %7 = landingpad { ptr, i32 }
          cleanup
  br label %eh.resume

return:                                           ; preds = %sw.default, %sw.bb21, %sw.bb17, %sw.bb13, %sw.bb9, %sw.bb5, %sw.bb1, %sw.bb
  %ref.tmp25.sink = phi ptr [ %ref.tmp, %sw.bb ], [ %ref.tmp2, %sw.bb1 ], [ %ref.tmp6, %sw.bb5 ], [ %ref.tmp10, %sw.bb9 ], [ %ref.tmp14, %sw.bb13 ], [ %ref.tmp18, %sw.bb17 ], [ %ref.tmp22, %sw.bb21 ], [ %ref.tmp25, %sw.default ]
  call void @_ZNSaIcED1Ev(ptr noundef nonnull align 1 dereferenceable(1) %ref.tmp25.sink) #18
  ret void

eh.resume:                                        ; preds = %lpad26, %lpad23, %lpad19, %lpad15, %lpad11, %lpad7, %lpad3, %lpad
  %ref.tmp25.sink2 = phi ptr [ %ref.tmp25, %lpad26 ], [ %ref.tmp22, %lpad23 ], [ %ref.tmp18, %lpad19 ], [ %ref.tmp14, %lpad15 ], [ %ref.tmp10, %lpad11 ], [ %ref.tmp6, %lpad7 ], [ %ref.tmp2, %lpad3 ], [ %ref.tmp, %lpad ]
  %.pn = phi { ptr, i32 } [ %7, %lpad26 ], [ %6, %lpad23 ], [ %5, %lpad19 ], [ %4, %lpad15 ], [ %3, %lpad11 ], [ %2, %lpad7 ], [ %1, %lpad3 ], [ %0, %lpad ]
  call void @_ZNSaIcED1Ev(ptr noundef nonnull align 1 dereferenceable(1) %ref.tmp25.sink2) #18
  resume { ptr, i32 } %.pn
}